; Function Attrs: mustprogress uwtable
define hidden noundef zeroext i1 @_ZN2cv8tinyxml210XMLPrinter5VisitERKNS0_10XMLUnknownE(ptr noundef nonnull align 8 dereferenceable(312) %0, ptr noundef nonnull align 8 captures(none) dereferenceable(88) %1) unnamed_addr #4 align 2 {
  %3 = getelementptr inbounds nuw i8, ptr %1, i64 24
  %4 = tail call noundef ptr @_ZN2cv8tinyxml27StrPair6GetStrEv(ptr noundef nonnull align 8 dereferenceable(24) %3)
  %5 = getelementptr inbounds nuw i8, ptr %0, i64 8
  %6 = load i8, ptr %5, align 8, !tbaa !153, !range !119, !noundef !120
  %7 = trunc nuw i8 %6 to i1
  br i1 %7, label %8, label %9

8:                                                ; preds = %2
  store i8 0, ptr %5, align 8, !tbaa !153
  tail call void (ptr, ptr, ...) @_ZN2cv8tinyxml210XMLPrinter5PrintEPKcz(ptr noundef nonnull align 8 dereferenceable(312) %0, ptr noundef nonnull @.str.16)
  br label %9

9:                                                ; preds = %8, %2
  %10 = getelementptr inbounds nuw i8, ptr %0, i64 132
  %11 = load i32, ptr %10, align 4, !tbaa !166
  %12 = icmp slt i32 %11, 0
  br i1 %12, label %13, label %_ZN2cv8tinyxml210XMLPrinter11PushUnknownEPKc.exit

13:                                               ; preds = %9
  %14 = getelementptr inbounds nuw i8, ptr %0, i64 112
  %15 = load i8, ptr %14, align 8, !tbaa !163, !range !119, !noundef !120
  %16 = trunc nuw i8 %15 to i1
  br i1 %16, label %_ZN2cv8tinyxml210XMLPrinter11PushUnknownEPKc.exit, label %17

17:                                               ; preds = %13
  %18 = getelementptr inbounds nuw i8, ptr %0, i64 137
  %19 = load i8, ptr %18, align 1, !tbaa !168, !range !119, !noundef !120
  %20 = trunc nuw i8 %19 to i1
  br i1 %20, label %_ZN2cv8tinyxml210XMLPrinter11PushUnknownEPKc.exit, label %21

21:                                               ; preds = %17
  tail call void (ptr, ptr, ...) @_ZN2cv8tinyxml210XMLPrinter5PrintEPKcz(ptr noundef nonnull align 8 dereferenceable(312) %0, ptr noundef nonnull @.str.26)
  %22 = getelementptr inbounds nuw i8, ptr %0, i64 128
  %23 = load i32, ptr %22, align 8, !tbaa !165
  %24 = load ptr, ptr %0, align 8, !tbaa !39
  %25 = getelementptr inbounds nuw i8, ptr %24, i64 96
  %26 = load ptr, ptr %25, align 8
  tail call void %26(ptr noundef nonnull align 8 dereferenceable(312) %0, i32 noundef %23)
  br label %_ZN2cv8tinyxml210XMLPrinter11PushUnknownEPKc.exit

_ZN2cv8tinyxml210XMLPrinter11PushUnknownEPKc.exit: ; preds = %9, %13, %17, %21
  %27 = getelementptr inbounds nuw i8, ptr %0, i64 112
  store i8 0, ptr %27, align 8, !tbaa !163
  tail call void (ptr, ptr, ...) @_ZN2cv8tinyxml210XMLPrinter5PrintEPKcz(ptr noundef nonnull align 8 dereferenceable(312) %0, ptr noundef nonnull @.str.34, ptr noundef %4)
  ret i1 true
}